target datalayout = "e-m:e-p270:32:32-p271:32:32-p272:64:64-i64:64-i128:128-f80:128-n8:16:32:64-S128"
target triple = "x86_64-pc-linux-gnu"

%struct.agxbuf = type { %union.anon.2 }
%union.anon.2 = type { %struct.anon }
%struct.anon = type { ptr, i64, i64, [7 x i8], i8 }

@.str.14 = private unnamed_addr constant [6 x i8] c"%.02f\00", align 1

; Function Attrs: inlinehint nounwind uwtable
define internal i64 @agxbsizeof(ptr noundef %0) #2 {
  %2 = alloca i64, align 8
  %3 = alloca ptr, align 8
  store ptr %0, ptr %3, align 8, !tbaa !41
  %4 = load ptr, ptr %3, align 8, !tbaa !41
  %5 = call zeroext i1 @agxbuf_is_inline(ptr noundef %4)
  br i1 %5, label %6, label %7

6:                                                ; preds = %1
  store i64 31, ptr %2, align 8
  br label %12

7:                                                ; preds = %1
  %8 = load ptr, ptr %3, align 8, !tbaa !41
  %9 = getelementptr inbounds nuw %struct.agxbuf, ptr %8, i32 0, i32 0
  %10 = getelementptr inbounds nuw %struct.anon, ptr %9, i32 0, i32 2
  %11 = load i64, ptr %10, align 8, !tbaa !59
  store i64 %11, ptr %2, align 8
  br label %12

12:                                               ; preds = %7, %6
  %13 = load i64, ptr %2, align 8
  ret i64 %13
}

; Function Attrs: inlinehint nounwind uwtable
define internal zeroext i1 @agxbuf_is_inline(ptr noundef %0) #2 {
  %2 = alloca ptr, align 8
  store ptr %0, ptr %2, align 8, !tbaa !41
  %3 = load ptr, ptr %2, align 8, !tbaa !41
  %4 = getelementptr inbounds nuw %struct.agxbuf, ptr %3, i32 0, i32 0
  %5 = getelementptr inbounds nuw %struct.anon, ptr %4, i32 0, i32 4
  %6 = load i8, ptr %5, align 1, !tbaa !59
  %7 = zext i8 %6 to i32
  %8 = icmp slt i32 %7, 255
  ret i1 %8
}

; Function Attrs: inlinehint nounwind uwtable
define internal i64 @agxblen(ptr noundef %0) #2 {
  %2 = alloca i64, align 8
  %3 = alloca ptr, align 8
  store ptr %0, ptr %3, align 8, !tbaa !41
  %4 = load ptr, ptr %3, align 8, !tbaa !41
  %5 = call zeroext i1 @agxbuf_is_inline(ptr noundef %4)
  br i1 %5, label %6, label %14

6:                                                ; preds = %1
  %7 = load ptr, ptr %3, align 8, !tbaa !41
  %8 = getelementptr inbounds nuw %struct.agxbuf, ptr %7, i32 0, i32 0
  %9 = getelementptr inbounds nuw %struct.anon, ptr %8, i32 0, i32 4
  %10 = load i8, ptr %9, align 1, !tbaa !59
  %11 = zext i8 %10 to i32
  %12 = sub nsw i32 %11, 0
  %13 = sext i32 %12 to i64
  store i64 %13, ptr %2, align 8
  br label %19

14:                                               ; preds = %1
  %15 = load ptr, ptr %3, align 8, !tbaa !41
  %16 = getelementptr inbounds nuw %struct.agxbuf, ptr %15, i32 0, i32 0
  %17 = getelementptr inbounds nuw %struct.anon, ptr %16, i32 0, i32 1
  %18 = load i64, ptr %17, align 8, !tbaa !59
  store i64 %18, ptr %2, align 8
  br label %19

19:                                               ; preds = %14, %6
  %20 = load i64, ptr %2, align 8
  ret i64 %20
}

; Function Attrs: inlinehint nounwind uwtable
define internal ptr @agxbstart(ptr noundef %0) #2 {
  %2 = alloca ptr, align 8
  store ptr %0, ptr %2, align 8, !tbaa !41
  %3 = load ptr, ptr %2, align 8, !tbaa !41
  %4 = call zeroext i1 @agxbuf_is_inline(ptr noundef %3)
  br i1 %4, label %5, label %9

5:                                                ; preds = %1
  %6 = load ptr, ptr %2, align 8, !tbaa !41
  %7 = getelementptr inbounds nuw %struct.agxbuf, ptr %6, i32 0, i32 0
  %8 = getelementptr inbounds [31 x i8], ptr %7, i64 0, i64 0
  br label %14

9:                                                ; preds = %1
  %10 = load ptr, ptr %2, align 8, !tbaa !41
  %11 = getelementptr inbounds nuw %struct.agxbuf, ptr %10, i32 0, i32 0
  %12 = getelementptr inbounds nuw %struct.anon, ptr %11, i32 0, i32 0
  %13 = load ptr, ptr %12, align 8, !tbaa !59
  br label %14

14:                                               ; preds = %9, %5
  %15 = phi ptr [ %8, %5 ], [ %13, %9 ]
  ret ptr %15
}

; Function Attrs: inlinehint nounwind uwtable
define internal i32 @agxbputc(ptr noundef %0, i8 noundef signext %1) #2 {
  %3 = alloca ptr, align 8
  %4 = alloca i8, align 1
  %5 = alloca i64, align 8
  store ptr %0, ptr %3, align 8, !tbaa !41
  store i8 %1, ptr %4, align 1, !tbaa !59
  %6 = load ptr, ptr %3, align 8, !tbaa !41
  %7 = call i64 @agxblen(ptr noundef %6)
  %8 = load ptr, ptr %3, align 8, !tbaa !41
  %9 = call i64 @agxbsizeof(ptr noundef %8)
  %10 = icmp uge i64 %7, %9
  br i1 %10, label %11, label %13

11:                                               ; preds = %2
  %12 = load ptr, ptr %3, align 8, !tbaa !41
  call void @agxbmore(ptr noundef %12, i64 noundef 1)
  br label %13

13:                                               ; preds = %11, %2
  call void @llvm.lifetime.start.p0(i64 8, ptr %5) #14
  %14 = load ptr, ptr %3, align 8, !tbaa !41
  %15 = call i64 @agxblen(ptr noundef %14)
  store i64 %15, ptr %5, align 8, !tbaa !51
  %16 = load ptr, ptr %3, align 8, !tbaa !41
  %17 = call zeroext i1 @agxbuf_is_inline(ptr noundef %16)
  br i1 %17, label %18, label %29

18:                                               ; preds = %13
  %19 = load i8, ptr %4, align 1, !tbaa !59
  %20 = load ptr, ptr %3, align 8, !tbaa !41
  %21 = getelementptr inbounds nuw %struct.agxbuf, ptr %20, i32 0, i32 0
  %22 = load i64, ptr %5, align 8, !tbaa !51
  %23 = getelementptr inbounds nuw [31 x i8], ptr %21, i64 0, i64 %22
  store i8 %19, ptr %23, align 1, !tbaa !59
  %24 = load ptr, ptr %3, align 8, !tbaa !41
  %25 = getelementptr inbounds nuw %struct.agxbuf, ptr %24, i32 0, i32 0
  %26 = getelementptr inbounds nuw %struct.anon, ptr %25, i32 0, i32 4
  %27 = load i8, ptr %26, align 1, !tbaa !59
  %28 = add i8 %27, 1
  store i8 %28, ptr %26, align 1, !tbaa !59
  br label %42

29:                                               ; preds = %13
  %30 = load i8, ptr %4, align 1, !tbaa !59
  %31 = load ptr, ptr %3, align 8, !tbaa !41
  %32 = getelementptr inbounds nuw %struct.agxbuf, ptr %31, i32 0, i32 0
  %33 = getelementptr inbounds nuw %struct.anon, ptr %32, i32 0, i32 0
  %34 = load ptr, ptr %33, align 8, !tbaa !59
  %35 = load i64, ptr %5, align 8, !tbaa !51
  %36 = getelementptr inbounds nuw i8, ptr %34, i64 %35
  store i8 %30, ptr %36, align 1, !tbaa !59
  %37 = load ptr, ptr %3, align 8, !tbaa !41
  %38 = getelementptr inbounds nuw %struct.agxbuf, ptr %37, i32 0, i32 0
  %39 = getelementptr inbounds nuw %struct.anon, ptr %38, i32 0, i32 1
  %40 = load i64, ptr %39, align 8, !tbaa !59
  %41 = add i64 %40, 1
  store i64 %41, ptr %39, align 8, !tbaa !59
  br label %42

42:                                               ; preds = %29, %18
  call void @llvm.lifetime.end.p0(i64 8, ptr %5) #14
  ret i32 0
}

; Function Attrs: inlinehint nounwind uwtable
define internal void @agxbuf_trim_zeros(ptr noundef %0) #2 {
  %2 = alloca ptr, align 8
  %3 = alloca ptr, align 8
  %4 = alloca i64, align 8
  %5 = alloca i32, align 4
  %6 = alloca i64, align 8
  %7 = alloca i64, align 8
  store ptr %0, ptr %2, align 8, !tbaa !41
  call void @llvm.lifetime.start.p0(i64 8, ptr %3) #14
  %8 = load ptr, ptr %2, align 8, !tbaa !41
  %9 = call ptr @agxbstart(ptr noundef %8)
  store ptr %9, ptr %3, align 8, !tbaa !50
  call void @llvm.lifetime.start.p0(i64 8, ptr %4) #14
  %10 = load ptr, ptr %2, align 8, !tbaa !41
  %11 = call i64 @agxblen(ptr noundef %10)
  %12 = sub i64 %11, 1
  store i64 %12, ptr %4, align 8, !tbaa !51
  br label %13

13:                                               ; preds = %26, %1
  %14 = load i64, ptr %4, align 8, !tbaa !51
  %15 = icmp eq i64 %14, -1
  br i1 %15, label %16, label %17

16:                                               ; preds = %13
  store i32 1, ptr %5, align 4
  br label %115

17:                                               ; preds = %13
  %18 = load ptr, ptr %3, align 8, !tbaa !50
  %19 = load i64, ptr %4, align 8, !tbaa !51
  %20 = getelementptr inbounds nuw i8, ptr %18, i64 %19
  %21 = load i8, ptr %20, align 1, !tbaa !59
  %22 = sext i8 %21 to i32
  %23 = icmp eq i32 %22, 46
  br i1 %23, label %24, label %25

24:                                               ; preds = %17
  br label %29

25:                                               ; preds = %17
  br label %26

26:                                               ; preds = %25
  %27 = load i64, ptr %4, align 8, !tbaa !51
  %28 = add i64 %27, -1
  store i64 %28, ptr %4, align 8, !tbaa !51
  br label %13

29:                                               ; preds = %24
  call void @llvm.lifetime.start.p0(i64 8, ptr %6) #14
  %30 = load ptr, ptr %2, align 8, !tbaa !41
  %31 = call i64 @agxblen(ptr noundef %30)
  %32 = sub i64 %31, 1
  store i64 %32, ptr %6, align 8, !tbaa !51
  br label %33

33:                                               ; preds = %67, %29
  %34 = load i64, ptr %6, align 8, !tbaa !51
  %35 = load i64, ptr %4, align 8, !tbaa !51
  %36 = icmp eq i64 %34, %35
  br i1 %36, label %44, label %37

37:                                               ; preds = %33
  %38 = load ptr, ptr %3, align 8, !tbaa !50
  %39 = load i64, ptr %6, align 8, !tbaa !51
  %40 = getelementptr inbounds nuw i8, ptr %38, i64 %39
  %41 = load i8, ptr %40, align 1, !tbaa !59
  %42 = sext i8 %41 to i32
  %43 = icmp eq i32 %42, 48
  br i1 %43, label %44, label %65

44:                                               ; preds = %37, %33
  %45 = load ptr, ptr %2, align 8, !tbaa !41
  %46 = call zeroext i1 @agxbuf_is_inline(ptr noundef %45)
  br i1 %46, label %47, label %53

47:                                               ; preds = %44
  %48 = load ptr, ptr %2, align 8, !tbaa !41
  %49 = getelementptr inbounds nuw %struct.agxbuf, ptr %48, i32 0, i32 0
  %50 = getelementptr inbounds nuw %struct.anon, ptr %49, i32 0, i32 4
  %51 = load i8, ptr %50, align 1, !tbaa !59
  %52 = add i8 %51, -1
  store i8 %52, ptr %50, align 1, !tbaa !59
  br label %59

53:                                               ; preds = %44
  %54 = load ptr, ptr %2, align 8, !tbaa !41
  %55 = getelementptr inbounds nuw %struct.agxbuf, ptr %54, i32 0, i32 0
  %56 = getelementptr inbounds nuw %struct.anon, ptr %55, i32 0, i32 1
  %57 = load i64, ptr %56, align 8, !tbaa !59
  %58 = add i64 %57, -1
  store i64 %58, ptr %56, align 8, !tbaa !59
  br label %59

59:                                               ; preds = %53, %47
  %60 = load i64, ptr %6, align 8, !tbaa !51
  %61 = load i64, ptr %4, align 8, !tbaa !51
  %62 = icmp eq i64 %60, %61
  br i1 %62, label %63, label %64

63:                                               ; preds = %59
  store i32 5, ptr %5, align 4
  br label %70

64:                                               ; preds = %59
  br label %66

65:                                               ; preds = %37
  store i32 1, ptr %5, align 4
  br label %70

66:                                               ; preds = %64
  br label %67

67:                                               ; preds = %66
  %68 = load i64, ptr %6, align 8, !tbaa !51
  %69 = add i64 %68, -1
  store i64 %69, ptr %6, align 8, !tbaa !51
  br label %33

70:                                               ; preds = %65, %63
  call void @llvm.lifetime.end.p0(i64 8, ptr %6) #14
  %71 = load i32, ptr %5, align 4
  switch i32 %71, label %115 [
    i32 5, label %72
  ]

72:                                               ; preds = %70
  call void @llvm.lifetime.start.p0(i64 8, ptr %7) #14
  %73 = load ptr, ptr %2, align 8, !tbaa !41
  %74 = call i64 @agxblen(ptr noundef %73)
  store i64 %74, ptr %7, align 8, !tbaa !51
  %75 = load i64, ptr %7, align 8, !tbaa !51
  %76 = icmp ult i64 %75, 2
  br i1 %76, label %93, label %77

77:                                               ; preds = %72
  %78 = load ptr, ptr %3, align 8, !tbaa !50
  %79 = load i64, ptr %7, align 8, !tbaa !51
  %80 = sub i64 %79, 2
  %81 = getelementptr inbounds nuw i8, ptr %78, i64 %80
  %82 = load i8, ptr %81, align 1, !tbaa !59
  %83 = sext i8 %82 to i32
  %84 = icmp ne i32 %83, 45
  br i1 %84, label %93, label %85

85:                                               ; preds = %77
  %86 = load ptr, ptr %3, align 8, !tbaa !50
  %87 = load i64, ptr %7, align 8, !tbaa !51
  %88 = sub i64 %87, 1
  %89 = getelementptr inbounds nuw i8, ptr %86, i64 %88
  %90 = load i8, ptr %89, align 1, !tbaa !59
  %91 = sext i8 %90 to i32
  %92 = icmp ne i32 %91, 48
  br i1 %92, label %93, label %94

93:                                               ; preds = %85, %77, %72
  store i32 1, ptr %5, align 4
  br label %114

94:                                               ; preds = %85
  %95 = load ptr, ptr %3, align 8, !tbaa !50
  %96 = load i64, ptr %7, align 8, !tbaa !51
  %97 = sub i64 %96, 2
  %98 = getelementptr inbounds nuw i8, ptr %95, i64 %97
  store i8 48, ptr %98, align 1, !tbaa !59
  %99 = load ptr, ptr %2, align 8, !tbaa !41
  %100 = call zeroext i1 @agxbuf_is_inline(ptr noundef %99)
  br i1 %100, label %101, label %107

101:                                              ; preds = %94
  %102 = load ptr, ptr %2, align 8, !tbaa !41
  %103 = getelementptr inbounds nuw %struct.agxbuf, ptr %102, i32 0, i32 0
  %104 = getelementptr inbounds nuw %struct.anon, ptr %103, i32 0, i32 4
  %105 = load i8, ptr %104, align 1, !tbaa !59
  %106 = add i8 %105, -1
  store i8 %106, ptr %104, align 1, !tbaa !59
  br label %113

107:                                              ; preds = %94
  %108 = load ptr, ptr %2, align 8, !tbaa !41
  %109 = getelementptr inbounds nuw %struct.agxbuf, ptr %108, i32 0, i32 0
  %110 = getelementptr inbounds nuw %struct.anon, ptr %109, i32 0, i32 1
  %111 = load i64, ptr %110, align 8, !tbaa !59
  %112 = add i64 %111, -1
  store i64 %112, ptr %110, align 8, !tbaa !59
  br label %113

113:                                              ; preds = %107, %101
  store i32 0, ptr %5, align 4
  br label %114

114:                                              ; preds = %113, %93
  call void @llvm.lifetime.end.p0(i64 8, ptr %7) #14
  br label %115

115:                                              ; preds = %114, %70, %16
  call void @llvm.lifetime.end.p0(i64 8, ptr %4) #14
  call void @llvm.lifetime.end.p0(i64 8, ptr %3) #14
  %116 = load i32, ptr %5, align 4
  switch i32 %116, label %118 [
    i32 0, label %117
    i32 1, label %117
  ]

117:                                              ; preds = %115, %115
  ret void

118:                                              ; preds = %115
  unreachable
}

; Function Attrs: nounwind uwtable
define internal void @xdot_fmt_num(ptr noundef %0, double noundef %1) #0 {
  %3 = alloca ptr, align 8
  %4 = alloca double, align 8
  store ptr %0, ptr %3, align 8, !tbaa !41
  store double %1, ptr %4, align 8, !tbaa !58
  %5 = load ptr, ptr %3, align 8, !tbaa !41
  %6 = load double, ptr %4, align 8, !tbaa !58
  %7 = call i32 (ptr, ptr, ...) @agxbprint(ptr noundef %5, ptr noundef @.str.14, double noundef %6)
  %8 = load ptr, ptr %3, align 8, !tbaa !41
  call void @agxbuf_trim_zeros(ptr noundef %8)
  %9 = load ptr, ptr %3, align 8, !tbaa !41
  %10 = call i32 @agxbputc(ptr noundef %9, i8 noundef signext 32)
  ret void
}