; Function Attrs: nounwind uwtable
define internal fastcc void @xdot_fmt_num(ptr noundef captures(none) %0, double noundef %1) unnamed_addr #0 {
  tail call void (ptr, ptr, ...) @agxbprint(ptr noundef %0, ptr noundef nonnull @.str.14, double noundef %1)
  %3 = getelementptr i8, ptr %0, i64 31
  %.val.i.i = load i8, ptr %3, align 1, !tbaa !37
  %.not.i.i = icmp eq i8 %.val.i.i, -1
  br i1 %.not.i.i, label %5, label %agxbstart.exit.i

agxbstart.exit.i:                                 ; preds = %2
  %4 = zext i8 %.val.i.i to i64
  br label %agxblen.exit.i

5:                                                ; preds = %2
  %6 = load ptr, ptr %0, align 8, !tbaa !37
  %7 = getelementptr inbounds nuw i8, ptr %0, i64 8
  %8 = load i64, ptr %7, align 8, !tbaa !37
  br label %agxblen.exit.i

agxblen.exit.i:                                   ; preds = %5, %agxbstart.exit.i
  %9 = phi ptr [ %0, %agxbstart.exit.i ], [ %6, %5 ]
  %.0.i.i = phi i64 [ %4, %agxbstart.exit.i ], [ %8, %5 ]
  br label %10

10:                                               ; preds = %12, %agxblen.exit.i
  %.0.in.i = phi i64 [ %.0.i.i, %agxblen.exit.i ], [ %.0.i, %12 ]
  %11 = icmp eq i64 %.0.in.i, 0
  br i1 %11, label %agxbuf_trim_zeros.exit, label %12

12:                                               ; preds = %10
  %.0.i = add i64 %.0.in.i, -1
  %13 = getelementptr inbounds nuw i8, ptr %9, i64 %.0.i
  %14 = load i8, ptr %13, align 1, !tbaa !37
  %15 = icmp eq i8 %14, 46
  br i1 %15, label %16, label %10

16:                                               ; preds = %12
  br i1 %.not.i.i, label %19, label %17

17:                                               ; preds = %16
  %18 = zext i8 %.val.i.i to i64
  br label %agxblen.exit38.i

19:                                               ; preds = %16
  %20 = getelementptr inbounds nuw i8, ptr %0, i64 8
  %21 = load i64, ptr %20, align 8, !tbaa !37
  br label %agxblen.exit38.i

agxblen.exit38.i:                                 ; preds = %19, %17
  %.0.i37.i = phi i64 [ %18, %17 ], [ %21, %19 ]
  %22 = getelementptr inbounds nuw i8, ptr %0, i64 8
  br label %23

23:                                               ; preds = %35, %agxblen.exit38.i
  %.val.i3951.i = phi i8 [ %.val.i.i, %agxblen.exit38.i ], [ %.val.i39.i, %35 ]
  %.val32.i = phi i8 [ %.val.i.i, %agxblen.exit38.i ], [ %.val3250.i, %35 ]
  %.028.in.i = phi i64 [ %.0.i37.i, %agxblen.exit38.i ], [ %.028.i, %35 ]
  %.028.i = add i64 %.028.in.i, -1
  %24 = icmp eq i64 %.028.in.i, %.0.in.i
  br i1 %24, label %29, label %25

25:                                               ; preds = %23
  %26 = getelementptr inbounds nuw i8, ptr %9, i64 %.028.i
  %27 = load i8, ptr %26, align 1, !tbaa !37
  %28 = icmp eq i8 %27, 48
  br i1 %28, label %29, label %agxbuf_trim_zeros.exit

29:                                               ; preds = %25, %23
  %.not43.i = icmp eq i8 %.val32.i, -1
  br i1 %.not43.i, label %32, label %30

30:                                               ; preds = %29
  %31 = add i8 %.val32.i, -1
  store i8 %31, ptr %3, align 1, !tbaa !37
  br label %35

32:                                               ; preds = %29
  %33 = load i64, ptr %22, align 8, !tbaa !37
  %34 = add i64 %33, -1
  store i64 %34, ptr %22, align 8, !tbaa !37
  br label %35

35:                                               ; preds = %32, %30
  %.val.i39.i = phi i8 [ %.val.i3951.i, %32 ], [ %31, %30 ]
  %.val3250.i = phi i8 [ -1, %32 ], [ %31, %30 ]
  br i1 %24, label %.critedge.i, label %23

.critedge.i:                                      ; preds = %35
  %.not.i40.i = icmp eq i8 %.val.i39.i, -1
  br i1 %.not.i40.i, label %38, label %36

36:                                               ; preds = %.critedge.i
  %37 = zext i8 %.val.i39.i to i64
  br label %agxblen.exit42.i

38:                                               ; preds = %.critedge.i
  %39 = load i64, ptr %22, align 8, !tbaa !37
  br label %agxblen.exit42.i

agxblen.exit42.i:                                 ; preds = %38, %36
  %.0.i41.i = phi i64 [ %37, %36 ], [ %39, %38 ]
  %40 = icmp ult i64 %.0.i41.i, 2
  br i1 %40, label %agxbuf_trim_zeros.exit, label %41

41:                                               ; preds = %agxblen.exit42.i
  %42 = getelementptr i8, ptr %9, i64 %.0.i41.i
  %43 = getelementptr i8, ptr %42, i64 -2
  %44 = load i8, ptr %43, align 1, !tbaa !37
  %.not.i = icmp eq i8 %44, 45
  br i1 %.not.i, label %45, label %agxbuf_trim_zeros.exit

45:                                               ; preds = %41
  %46 = getelementptr i8, ptr %42, i64 -1
  %47 = load i8, ptr %46, align 1, !tbaa !37
  %.not31.i = icmp eq i8 %47, 48
  br i1 %.not31.i, label %48, label %agxbuf_trim_zeros.exit

48:                                               ; preds = %45
  store i8 48, ptr %43, align 1, !tbaa !37
  %.val.i = load i8, ptr %3, align 1, !tbaa !37
  %.not44.i = icmp eq i8 %.val.i, -1
  br i1 %.not44.i, label %agxbuf_trim_zeros.exit.thread, label %49

49:                                               ; preds = %48
  %50 = add i8 %.val.i, -1
  store i8 %50, ptr %3, align 1, !tbaa !37
  br label %agxbuf_trim_zeros.exit

agxbuf_trim_zeros.exit.thread:                    ; preds = %48
  %51 = load i64, ptr %22, align 8, !tbaa !37
  %52 = add i64 %51, -1
  store i64 %52, ptr %22, align 8, !tbaa !37
  br label %54

agxbuf_trim_zeros.exit:                           ; preds = %10, %25, %agxblen.exit42.i, %41, %45, %49
  %.val.i.i4 = phi i8 [ %50, %49 ], [ %.val.i39.i, %45 ], [ %.val.i39.i, %41 ], [ %.val.i39.i, %agxblen.exit42.i ], [ %.val.i3951.i, %25 ], [ %.val.i.i, %10 ]
  %.not.i.i5 = icmp eq i8 %.val.i.i4, -1
  br i1 %.not.i.i5, label %54, label %agxblen.exit.i6

agxblen.exit.i6:                                  ; preds = %agxbuf_trim_zeros.exit
  %53 = zext i8 %.val.i.i4 to i64
  br label %agxbsizeof.exit.i

54:                                               ; preds = %agxbuf_trim_zeros.exit.thread, %agxbuf_trim_zeros.exit
  %55 = getelementptr inbounds nuw i8, ptr %0, i64 8
  %56 = load i64, ptr %55, align 8, !tbaa !37
  %57 = getelementptr inbounds nuw i8, ptr %0, i64 16
  %58 = load i64, ptr %57, align 8, !tbaa !37
  br label %agxbsizeof.exit.i

agxbsizeof.exit.i:                                ; preds = %54, %agxblen.exit.i6
  %.val.i.i415 = phi i8 [ -1, %54 ], [ %.val.i.i4, %agxblen.exit.i6 ]
  %.0.i20.i = phi i64 [ %56, %54 ], [ %53, %agxblen.exit.i6 ]
  %.0.i14.i = phi i64 [ %58, %54 ], [ 31, %agxblen.exit.i6 ]
  %.not.i7 = icmp ult i64 %.0.i20.i, %.0.i14.i
  br i1 %.not.i7, label %60, label %59

59:                                               ; preds = %agxbsizeof.exit.i
  tail call fastcc void @agxbmore(ptr noundef nonnull %0, i64 noundef 1)
  %.val.i15.pre.i = load i8, ptr %3, align 1, !tbaa !37
  br label %60

60:                                               ; preds = %59, %agxbsizeof.exit.i
  %.val.i15.i = phi i8 [ %.val.i15.pre.i, %59 ], [ %.val.i.i415, %agxbsizeof.exit.i ]
  %.not.i16.i = icmp eq i8 %.val.i15.i, -1
  br i1 %.not.i16.i, label %66, label %61

61:                                               ; preds = %60
  %62 = zext i8 %.val.i15.i to i64
  %63 = getelementptr inbounds nuw [31 x i8], ptr %0, i64 0, i64 %62
  store i8 32, ptr %63, align 1, !tbaa !37
  %64 = load i8, ptr %3, align 1, !tbaa !37
  %65 = add i8 %64, 1
  store i8 %65, ptr %3, align 1, !tbaa !37
  br label %agxbputc.exit

66:                                               ; preds = %60
  %67 = getelementptr inbounds nuw i8, ptr %0, i64 8
  %68 = load i64, ptr %67, align 8, !tbaa !37
  %69 = load ptr, ptr %0, align 8, !tbaa !37
  %70 = getelementptr inbounds nuw i8, ptr %69, i64 %68
  store i8 32, ptr %70, align 1, !tbaa !37
  %71 = load i64, ptr %67, align 8, !tbaa !37
  %72 = add i64 %71, 1
  store i64 %72, ptr %67, align 8, !tbaa !37
  br label %agxbputc.exit

agxbputc.exit:                                    ; preds = %61, %66
  ret void
}